; Function Attrs: mustprogress nounwind uwtable
define noundef i64 @_ZN32pxrInternal_v0_24__pxrReserved__16TfStringToUInt64ERKNSt7__cxx1112basic_stringIcSt11char_traitsIcESaIcEEEPb(ptr noundef nonnull align 8 dereferenceable(32) %0, ptr noundef writeonly %1) local_unnamed_addr #6 {
  %3 = tail call noundef ptr @_ZNKSt7__cxx1112basic_stringIcSt11char_traitsIcESaIcEE5c_strEv(ptr noundef nonnull align 8 dereferenceable(32) %0) #22
  %4 = load i8, ptr %3, align 1
  %5 = add i8 %4, -48
  %or.cond15.i.i = icmp ult i8 %5, 10
  br i1 %or.cond15.i.i, label %.lr.ph.i.i, label %_ZN32pxrInternal_v0_24__pxrReserved__16TfStringToUInt64EPKcPb.exit

.lr.ph.i.i:                                       ; preds = %2, %12
  %6 = phi i8 [ %17, %12 ], [ %4, %2 ]
  %.01017.i.i = phi i64 [ %16, %12 ], [ 0, %2 ]
  %.01116.i.i = phi ptr [ %14, %12 ], [ %3, %2 ]
  %narrow.i.i = add nsw i8 %6, -48
  %7 = icmp ugt i8 %narrow.i.i, 5
  %8 = select i1 %7, i64 1844674407370955160, i64 1844674407370955161
  %9 = icmp ugt i64 %.01017.i.i, %8
  br i1 %9, label %10, label %12

10:                                               ; preds = %.lr.ph.i.i
  %.not.i.i = icmp eq ptr %1, null
  br i1 %.not.i.i, label %_ZN32pxrInternal_v0_24__pxrReserved__16TfStringToUInt64EPKcPb.exit, label %11

11:                                               ; preds = %10
  store i8 1, ptr %1, align 1
  br label %_ZN32pxrInternal_v0_24__pxrReserved__16TfStringToUInt64EPKcPb.exit

12:                                               ; preds = %.lr.ph.i.i
  %13 = zext nneg i8 %narrow.i.i to i64
  %14 = getelementptr inbounds i8, ptr %.01116.i.i, i64 1
  %15 = mul nuw i64 %.01017.i.i, 10
  %16 = add i64 %15, %13
  %17 = load i8, ptr %14, align 1
  %18 = add i8 %17, -48
  %or.cond.i.i = icmp ult i8 %18, 10
  br i1 %or.cond.i.i, label %.lr.ph.i.i, label %_ZN32pxrInternal_v0_24__pxrReserved__16TfStringToUInt64EPKcPb.exit, !llvm.loop !7

_ZN32pxrInternal_v0_24__pxrReserved__16TfStringToUInt64EPKcPb.exit: ; preds = %12, %2, %10, %11
  %.0.i.i = phi i64 [ -1, %11 ], [ -1, %10 ], [ 0, %2 ], [ %16, %12 ]
  ret i64 %.0.i.i
}